target datalayout = "e-m:e-p270:32:32-p271:32:32-p272:64:64-i64:64-i128:128-f80:128-n8:16:32:64-S128"
target triple = "x86_64-pc-linux-gnu"

%struct._generic_SUNMatrix = type { ptr, ptr, ptr }
%struct._SUNMatrixContent_Band = type { i64, i64, i64, i64, i64, i64, ptr, i64, ptr }

; Function Attrs: nounwind uwtable
define i32 @SUNMatZero_Band(ptr noundef %0) #0 {
  %2 = alloca ptr, align 8
  %3 = alloca ptr, align 8
  %4 = alloca i64, align 8
  %5 = alloca ptr, align 8
  store ptr %0, ptr %2, align 8, !tbaa !10
  call void @llvm.lifetime.start.p0(i64 8, ptr %3) #8
  %6 = load ptr, ptr %2, align 8, !tbaa !10
  %7 = getelementptr inbounds nuw %struct._generic_SUNMatrix, ptr %6, i32 0, i32 2
  %8 = load ptr, ptr %7, align 8, !tbaa !41
  store ptr %8, ptr %3, align 8, !tbaa !7
  call void @llvm.lifetime.start.p0(i64 8, ptr %4) #8
  call void @llvm.lifetime.start.p0(i64 8, ptr %5) #8
  %9 = load ptr, ptr %2, align 8, !tbaa !10
  %10 = getelementptr inbounds nuw %struct._generic_SUNMatrix, ptr %9, i32 0, i32 0
  %11 = load ptr, ptr %10, align 8, !tbaa !27
  %12 = getelementptr inbounds nuw %struct._SUNMatrixContent_Band, ptr %11, i32 0, i32 6
  %13 = load ptr, ptr %12, align 8, !tbaa !38
  store ptr %13, ptr %5, align 8, !tbaa !40
  store i64 0, ptr %4, align 8, !tbaa !3
  br label %14

14:                                               ; preds = %26, %1
  %15 = load i64, ptr %4, align 8, !tbaa !3
  %16 = load ptr, ptr %2, align 8, !tbaa !10
  %17 = getelementptr inbounds nuw %struct._generic_SUNMatrix, ptr %16, i32 0, i32 0
  %18 = load ptr, ptr %17, align 8, !tbaa !27
  %19 = getelementptr inbounds nuw %struct._SUNMatrixContent_Band, ptr %18, i32 0, i32 7
  %20 = load i64, ptr %19, align 8, !tbaa !37
  %21 = icmp slt i64 %15, %20
  br i1 %21, label %22, label %29

22:                                               ; preds = %14
  %23 = load ptr, ptr %5, align 8, !tbaa !40
  %24 = load i64, ptr %4, align 8, !tbaa !3
  %25 = getelementptr inbounds double, ptr %23, i64 %24
  store double 0.000000e+00, ptr %25, align 8, !tbaa !42
  br label %26

26:                                               ; preds = %22
  %27 = load i64, ptr %4, align 8, !tbaa !3
  %28 = add nsw i64 %27, 1
  store i64 %28, ptr %4, align 8, !tbaa !3
  br label %14

29:                                               ; preds = %14
  call void @llvm.lifetime.end.p0(i64 8, ptr %5) #8
  call void @llvm.lifetime.end.p0(i64 8, ptr %4) #8
  call void @llvm.lifetime.end.p0(i64 8, ptr %3) #8
  ret i32 0
}