; Function Attrs: mustprogress nofree norecurse nosync nounwind willreturn memory(readwrite, inaccessiblemem: none) uwtable
define noundef i32 @SUNMatZero_Band(ptr noundef readonly captures(none) %0) #4 {
  %2 = load ptr, ptr %0, align 8, !tbaa !20
  %3 = getelementptr inbounds nuw i8, ptr %2, i64 56
  %4 = load i64, ptr %3, align 8, !tbaa !31
  %5 = icmp sgt i64 %4, 0
  br i1 %5, label %.lr.ph.preheader, label %._crit_edge

.lr.ph.preheader:                                 ; preds = %1
  %6 = getelementptr inbounds nuw i8, ptr %2, i64 48
  %7 = load ptr, ptr %6, align 8, !tbaa !32
  %8 = shl nuw i64 %4, 3
  tail call void @llvm.memset.p0.i64(ptr align 8 %7, i8 0, i64 %8, i1 false), !tbaa !36
  br label %._crit_edge

._crit_edge:                                      ; preds = %.lr.ph.preheader, %1
  ret i32 0
}